target datalayout = "e-m:e-p270:32:32-p271:32:32-p272:64:64-i64:64-i128:128-f80:128-n8:16:32:64-S128"
target triple = "x86_64-pc-linux-gnu"

%struct.tr2_tgt = type { ptr, ptr, ptr, ptr, ptr, ptr, ptr, ptr, ptr, ptr, ptr, ptr, ptr, ptr, ptr, ptr, ptr, ptr, ptr, ptr, ptr, ptr, ptr, ptr, ptr, ptr, ptr, ptr, ptr, ptr }

@trace2_enabled = internal global i32 0, align 4
@tr2_tgt_builtins = internal global [4 x ptr] [ptr @tr2_tgt_normal, ptr @tr2_tgt_perf, ptr @tr2_tgt_event, ptr null], align 16
@tr2main_exit_code = internal global i32 0, align 4

; Function Attrs: nounwind uwtable
define internal void @tr2_tgt_disable_builtins() #0 {
  %1 = alloca ptr, align 8
  %2 = alloca i32, align 4
  call void @llvm.lifetime.start.p0(i64 8, ptr %1) #9
  call void @llvm.lifetime.start.p0(i64 4, ptr %2) #9
  store i32 0, ptr %2, align 4, !tbaa !9
  %3 = load i32, ptr %2, align 4, !tbaa !9
  %4 = sext i32 %3 to i64
  %5 = getelementptr inbounds [4 x ptr], ptr @tr2_tgt_builtins, i64 0, i64 %4
  %6 = load ptr, ptr %5, align 8, !tbaa !11
  store ptr %6, ptr %1, align 8, !tbaa !11
  br label %7

7:                                                ; preds = %14, %0
  %8 = load ptr, ptr %1, align 8, !tbaa !11
  %9 = icmp ne ptr %8, null
  br i1 %9, label %10, label %21

10:                                               ; preds = %7
  %11 = load ptr, ptr %1, align 8, !tbaa !11
  %12 = getelementptr inbounds nuw %struct.tr2_tgt, ptr %11, i32 0, i32 2
  %13 = load ptr, ptr %12, align 8, !tbaa !127
  call void %13()
  br label %14

14:                                               ; preds = %10
  %15 = load i32, ptr %2, align 4, !tbaa !9
  %16 = add nsw i32 %15, 1
  store i32 %16, ptr %2, align 4, !tbaa !9
  %17 = load i32, ptr %2, align 4, !tbaa !9
  %18 = sext i32 %17 to i64
  %19 = getelementptr inbounds [4 x ptr], ptr @tr2_tgt_builtins, i64 0, i64 %18
  %20 = load ptr, ptr %19, align 8, !tbaa !11
  store ptr %20, ptr %1, align 8, !tbaa !11
  br label %7, !llvm.loop !128

21:                                               ; preds = %7
  call void @llvm.lifetime.end.p0(i64 4, ptr %2) #9
  call void @llvm.lifetime.end.p0(i64 8, ptr %1) #9
  ret void
}

; Function Attrs: nounwind uwtable
define internal void @tr2main_atexit_handler() #0 {
  %1 = alloca ptr, align 8
  %2 = alloca i32, align 4
  %3 = alloca i64, align 8
  %4 = alloca i64, align 8
  call void @llvm.lifetime.start.p0(i64 8, ptr %1) #9
  call void @llvm.lifetime.start.p0(i64 4, ptr %2) #9
  call void @llvm.lifetime.start.p0(i64 8, ptr %3) #9
  call void @llvm.lifetime.start.p0(i64 8, ptr %4) #9
  %5 = call i64 @getnanotime()
  %6 = udiv i64 %5, 1000
  store i64 %6, ptr %3, align 8, !tbaa !21
  %7 = load i64, ptr %3, align 8, !tbaa !21
  %8 = call i64 @tr2tls_absolute_elapsed(i64 noundef %7)
  store i64 %8, ptr %4, align 8, !tbaa !21
  call void @tr2tls_pop_unwind_self()
  call void @tr2_emit_per_thread_timers(ptr noundef @tr2_tgt_emit_a_timer)
  call void @tr2_emit_per_thread_counters(ptr noundef @tr2_tgt_emit_a_counter)
  call void @tr2tls_lock()
  call void @tr2_update_final_timers()
  call void @tr2_update_final_counters()
  call void @tr2_emit_final_timers(ptr noundef @tr2_tgt_emit_a_timer)
  call void @tr2_emit_final_counters(ptr noundef @tr2_tgt_emit_a_counter)
  call void @tr2tls_unlock()
  store i32 0, ptr %2, align 4, !tbaa !9
  %9 = load i32, ptr %2, align 4, !tbaa !9
  %10 = sext i32 %9 to i64
  %11 = getelementptr inbounds [4 x ptr], ptr @tr2_tgt_builtins, i64 0, i64 %10
  %12 = load ptr, ptr %11, align 8, !tbaa !11
  store ptr %12, ptr %1, align 8, !tbaa !11
  br label %13

13:                                               ; preds = %35, %0
  %14 = load ptr, ptr %1, align 8, !tbaa !11
  %15 = icmp ne ptr %14, null
  br i1 %15, label %16, label %42

16:                                               ; preds = %13
  %17 = load ptr, ptr %1, align 8, !tbaa !11
  %18 = getelementptr inbounds nuw %struct.tr2_tgt, ptr %17, i32 0, i32 0
  %19 = load ptr, ptr %18, align 8, !tbaa !13
  %20 = call i32 @tr2_dst_trace_want(ptr noundef %19)
  %21 = icmp ne i32 %20, 0
  br i1 %21, label %22, label %34

22:                                               ; preds = %16
  %23 = load ptr, ptr %1, align 8, !tbaa !11
  %24 = getelementptr inbounds nuw %struct.tr2_tgt, ptr %23, i32 0, i32 7
  %25 = load ptr, ptr %24, align 8, !tbaa !23
  %26 = icmp ne ptr %25, null
  br i1 %26, label %27, label %33

27:                                               ; preds = %22
  %28 = load ptr, ptr %1, align 8, !tbaa !11
  %29 = getelementptr inbounds nuw %struct.tr2_tgt, ptr %28, i32 0, i32 7
  %30 = load ptr, ptr %29, align 8, !tbaa !23
  %31 = load i64, ptr %4, align 8, !tbaa !21
  %32 = load i32, ptr @tr2main_exit_code, align 4, !tbaa !9
  call void %30(i64 noundef %31, i32 noundef %32)
  br label %33

33:                                               ; preds = %27, %22
  br label %34

34:                                               ; preds = %33, %16
  br label %35

35:                                               ; preds = %34
  %36 = load i32, ptr %2, align 4, !tbaa !9
  %37 = add nsw i32 %36, 1
  store i32 %37, ptr %2, align 4, !tbaa !9
  %38 = load i32, ptr %2, align 4, !tbaa !9
  %39 = sext i32 %38 to i64
  %40 = getelementptr inbounds [4 x ptr], ptr @tr2_tgt_builtins, i64 0, i64 %39
  %41 = load ptr, ptr %40, align 8, !tbaa !11
  store ptr %41, ptr %1, align 8, !tbaa !11
  br label %13, !llvm.loop !24

42:                                               ; preds = %13
  call void @tr2_tgt_disable_builtins()
  call void @tr2tls_release()
  call void @tr2_sid_release()
  call void @tr2_cmd_name_release()
  call void @tr2_cfg_free_patterns()
  call void @tr2_cfg_free_env_vars()
  call void @tr2_sysenv_release()
  store i32 0, ptr @trace2_enabled, align 4, !tbaa !9
  call void @llvm.lifetime.end.p0(i64 8, ptr %4) #9
  call void @llvm.lifetime.end.p0(i64 8, ptr %3) #9
  call void @llvm.lifetime.end.p0(i64 4, ptr %2) #9
  call void @llvm.lifetime.end.p0(i64 8, ptr %1) #9
  ret void
}