; Function Attrs: nounwind uwtable
define internal void @tr2main_atexit_handler() #0 {
  %1 = tail call i64 @getnanotime() #11
  %2 = udiv i64 %1, 1000
  %3 = tail call i64 @tr2tls_absolute_elapsed(i64 noundef %2) #11
  tail call void @tr2tls_pop_unwind_self() #11
  tail call void @tr2_emit_per_thread_timers(ptr noundef nonnull @tr2_tgt_emit_a_timer) #11
  tail call void @tr2_emit_per_thread_counters(ptr noundef nonnull @tr2_tgt_emit_a_counter) #11
  tail call void @tr2tls_lock() #11
  tail call void @tr2_update_final_timers() #11
  tail call void @tr2_update_final_counters() #11
  tail call void @tr2_emit_final_timers(ptr noundef nonnull @tr2_tgt_emit_a_timer) #11
  tail call void @tr2_emit_final_counters(ptr noundef nonnull @tr2_tgt_emit_a_counter) #11
  tail call void @tr2tls_unlock() #11
  br label %4

4:                                                ; preds = %0, %12
  %indvars.iv = phi i64 [ 0, %0 ], [ %indvars.iv.next, %12 ]
  %.013 = phi ptr [ @tr2_tgt_normal, %0 ], [ %14, %12 ]
  %5 = load ptr, ptr %.013, align 8, !tbaa !14
  %6 = tail call i32 @tr2_dst_trace_want(ptr noundef %5) #11
  %.not10 = icmp eq i32 %6, 0
  br i1 %.not10, label %12, label %7

7:                                                ; preds = %4
  %8 = getelementptr inbounds nuw i8, ptr %.013, i64 56
  %9 = load ptr, ptr %8, align 8, !tbaa !17
  %.not11 = icmp eq ptr %9, null
  br i1 %.not11, label %12, label %10

10:                                               ; preds = %7
  %11 = load i32, ptr @tr2main_exit_code, align 4, !tbaa !18
  tail call void %9(i64 noundef %3, i32 noundef %11) #11
  br label %12

12:                                               ; preds = %4, %10, %7
  %indvars.iv.next = add nuw nsw i64 %indvars.iv, 1
  %13 = getelementptr inbounds nuw [4 x ptr], ptr @tr2_tgt_builtins, i64 0, i64 %indvars.iv.next
  %14 = load ptr, ptr %13, align 8, !tbaa !10
  %.not = icmp eq i64 %indvars.iv.next, 3
  br i1 %.not, label %.preheader, label %4, !llvm.loop !20

.preheader:                                       ; preds = %12, %.preheader
  %indvars.iv.i = phi i64 [ %indvars.iv.next.i, %.preheader ], [ 0, %12 ]
  %.045.i = phi ptr [ %18, %.preheader ], [ @tr2_tgt_normal, %12 ]
  %15 = getelementptr inbounds nuw i8, ptr %.045.i, i64 16
  %16 = load ptr, ptr %15, align 8, !tbaa !21
  tail call void %16() #11
  %indvars.iv.next.i = add nuw nsw i64 %indvars.iv.i, 1
  %17 = getelementptr inbounds nuw [4 x ptr], ptr @tr2_tgt_builtins, i64 0, i64 %indvars.iv.next.i
  %18 = load ptr, ptr %17, align 8, !tbaa !10
  %.not.i = icmp eq i64 %indvars.iv.next.i, 3
  br i1 %.not.i, label %tr2_tgt_disable_builtins.exit, label %.preheader, !llvm.loop !22

tr2_tgt_disable_builtins.exit:                    ; preds = %.preheader
  tail call void @tr2tls_release() #11
  tail call void @tr2_sid_release() #11
  tail call void @tr2_cmd_name_release() #11
  tail call void @tr2_cfg_free_patterns() #11
  tail call void @tr2_cfg_free_env_vars() #11
  tail call void @tr2_sysenv_release() #11
  store i1 false, ptr @trace2_enabled, align 4
  ret void
}